target datalayout = "e-m:e-p270:32:32-p271:32:32-p272:64:64-i64:64-i128:128-f80:128-n8:16:32:64-S128"
target triple = "x86_64-pc-linux-gnu"

; Function Attrs: mustprogress nounwind uwtable
define internal noundef i32 @_ZN4absl12_GLOBAL__N_17ToDigitILi10EEEjc(i8 noundef signext %0) #3 {
  %2 = alloca i8, align 1
  store i8 %0, ptr %2, align 1, !tbaa !11
  %3 = load i8, ptr %2, align 1, !tbaa !11
  %4 = sext i8 %3 to i32
  %5 = sub nsw i32 %4, 48
  ret i32 %5
}

; Function Attrs: mustprogress nounwind uwtable
define internal noundef zeroext i1 @_ZN4absl12_GLOBAL__N_17IsDigitILi10EEEbc(i8 noundef signext %0) #3 {
  %2 = alloca i8, align 1
  store i8 %0, ptr %2, align 1, !tbaa !11
  %3 = load i8, ptr %2, align 1, !tbaa !11
  %4 = sext i8 %3 to i32
  %5 = icmp sge i32 %4, 48
  br i1 %5, label %6, label %10

6:                                                ; preds = %1
  %7 = load i8, ptr %2, align 1, !tbaa !11
  %8 = sext i8 %7 to i32
  %9 = icmp sle i32 %8, 57
  br label %10

10:                                               ; preds = %6, %1
  %11 = phi i1 [ false, %1 ], [ %9, %6 ]
  ret i1 %11
}

; Function Attrs: mustprogress nounwind uwtable
define internal noundef i32 @_ZN4absl12_GLOBAL__N_113ConsumeDigitsILi10EiEEiPKcS3_iPT0_Pb(ptr noundef %0, ptr noundef %1, i32 noundef %2, ptr noundef %3, ptr noundef %4) #3 {
  %6 = alloca ptr, align 8
  %7 = alloca ptr, align 8
  %8 = alloca i32, align 4
  %9 = alloca ptr, align 8
  %10 = alloca ptr, align 8
  %11 = alloca ptr, align 8
  %12 = alloca i32, align 4
  %13 = alloca ptr, align 8
  %14 = alloca i32, align 4
  %15 = alloca i8, align 1
  store ptr %0, ptr %6, align 8, !tbaa !4
  store ptr %1, ptr %7, align 8, !tbaa !4
  store i32 %2, ptr %8, align 4, !tbaa !16
  store ptr %3, ptr %9, align 8, !tbaa !42
  store ptr %4, ptr %10, align 8, !tbaa !37
  call void @llvm.lifetime.start.p0(i64 8, ptr %11) #5
  %16 = load ptr, ptr %6, align 8, !tbaa !4
  store ptr %16, ptr %11, align 8, !tbaa !4
  br label %17

17:                                               ; preds = %32, %5
  %18 = load ptr, ptr %9, align 8, !tbaa !42
  %19 = load i32, ptr %18, align 4, !tbaa !16
  %20 = icmp ne i32 %19, 0
  br i1 %20, label %30, label %21

21:                                               ; preds = %17
  %22 = load ptr, ptr %7, align 8, !tbaa !4
  %23 = load ptr, ptr %6, align 8, !tbaa !4
  %24 = icmp ne ptr %22, %23
  br i1 %24, label %25, label %30

25:                                               ; preds = %21
  %26 = load ptr, ptr %6, align 8, !tbaa !4
  %27 = load i8, ptr %26, align 1, !tbaa !11
  %28 = sext i8 %27 to i32
  %29 = icmp eq i32 %28, 48
  br label %30

30:                                               ; preds = %25, %21, %17
  %31 = phi i1 [ false, %21 ], [ false, %17 ], [ %29, %25 ]
  br i1 %31, label %32, label %35

32:                                               ; preds = %30
  %33 = load ptr, ptr %6, align 8, !tbaa !4
  %34 = getelementptr inbounds nuw i8, ptr %33, i32 1
  store ptr %34, ptr %6, align 8, !tbaa !4
  br label %17, !llvm.loop !44

35:                                               ; preds = %30
  call void @llvm.lifetime.start.p0(i64 4, ptr %12) #5
  %36 = load ptr, ptr %9, align 8, !tbaa !42
  %37 = load i32, ptr %36, align 4, !tbaa !16
  store i32 %37, ptr %12, align 4, !tbaa !16
  call void @llvm.lifetime.start.p0(i64 8, ptr %13) #5
  %38 = load ptr, ptr %7, align 8, !tbaa !4
  %39 = load ptr, ptr %6, align 8, !tbaa !4
  %40 = ptrtoint ptr %38 to i64
  %41 = ptrtoint ptr %39 to i64
  %42 = sub i64 %40, %41
  %43 = load i32, ptr %8, align 4, !tbaa !16
  %44 = sext i32 %43 to i64
  %45 = icmp sgt i64 %42, %44
  br i1 %45, label %46, label %51

46:                                               ; preds = %35
  %47 = load ptr, ptr %6, align 8, !tbaa !4
  %48 = load i32, ptr %8, align 4, !tbaa !16
  %49 = sext i32 %48 to i64
  %50 = getelementptr inbounds i8, ptr %47, i64 %49
  br label %53

51:                                               ; preds = %35
  %52 = load ptr, ptr %7, align 8, !tbaa !4
  br label %53

53:                                               ; preds = %51, %46
  %54 = phi ptr [ %50, %46 ], [ %52, %51 ]
  store ptr %54, ptr %13, align 8, !tbaa !4
  br label %55

55:                                               ; preds = %65, %53
  %56 = load ptr, ptr %6, align 8, !tbaa !4
  %57 = load ptr, ptr %13, align 8, !tbaa !4
  %58 = icmp ult ptr %56, %57
  br i1 %58, label %59, label %63

59:                                               ; preds = %55
  %60 = load ptr, ptr %6, align 8, !tbaa !4
  %61 = load i8, ptr %60, align 1, !tbaa !11
  %62 = call noundef zeroext i1 @_ZN4absl12_GLOBAL__N_17IsDigitILi10EEEbc(i8 noundef signext %61)
  br label %63

63:                                               ; preds = %59, %55
  %64 = phi i1 [ false, %55 ], [ %62, %59 ]
  br i1 %64, label %65, label %76

65:                                               ; preds = %63
  call void @llvm.lifetime.start.p0(i64 4, ptr %14) #5
  %66 = load ptr, ptr %6, align 8, !tbaa !4
  %67 = load i8, ptr %66, align 1, !tbaa !11
  %68 = call noundef i32 @_ZN4absl12_GLOBAL__N_17ToDigitILi10EEEjc(i8 noundef signext %67)
  store i32 %68, ptr %14, align 4, !tbaa !16
  %69 = load i32, ptr %12, align 4, !tbaa !16
  %70 = mul nsw i32 %69, 10
  store i32 %70, ptr %12, align 4, !tbaa !16
  %71 = load i32, ptr %14, align 4, !tbaa !16
  %72 = load i32, ptr %12, align 4, !tbaa !16
  %73 = add nsw i32 %72, %71
  store i32 %73, ptr %12, align 4, !tbaa !16
  %74 = load ptr, ptr %6, align 8, !tbaa !4
  %75 = getelementptr inbounds nuw i8, ptr %74, i32 1
  store ptr %75, ptr %6, align 8, !tbaa !4
  call void @llvm.lifetime.end.p0(i64 4, ptr %14) #5
  br label %55, !llvm.loop !45

76:                                               ; preds = %63
  call void @llvm.lifetime.start.p0(i64 1, ptr %15) #5
  store i8 0, ptr %15, align 1, !tbaa !18
  br label %77

77:                                               ; preds = %95, %76
  %78 = load ptr, ptr %6, align 8, !tbaa !4
  %79 = load ptr, ptr %7, align 8, !tbaa !4
  %80 = icmp ult ptr %78, %79
  br i1 %80, label %81, label %85

81:                                               ; preds = %77
  %82 = load ptr, ptr %6, align 8, !tbaa !4
  %83 = load i8, ptr %82, align 1, !tbaa !11
  %84 = call noundef zeroext i1 @_ZN4absl12_GLOBAL__N_17IsDigitILi10EEEbc(i8 noundef signext %83)
  br label %85

85:                                               ; preds = %81, %77
  %86 = phi i1 [ false, %77 ], [ %84, %81 ]
  br i1 %86, label %87, label %100

87:                                               ; preds = %85
  %88 = load i8, ptr %15, align 1, !tbaa !18, !range !21, !noundef !22
  %89 = trunc i8 %88 to i1
  br i1 %89, label %95, label %90

90:                                               ; preds = %87
  %91 = load ptr, ptr %6, align 8, !tbaa !4
  %92 = load i8, ptr %91, align 1, !tbaa !11
  %93 = sext i8 %92 to i32
  %94 = icmp ne i32 %93, 48
  br label %95

95:                                               ; preds = %90, %87
  %96 = phi i1 [ true, %87 ], [ %94, %90 ]
  %97 = zext i1 %96 to i8
  store i8 %97, ptr %15, align 1, !tbaa !18
  %98 = load ptr, ptr %6, align 8, !tbaa !4
  %99 = getelementptr inbounds nuw i8, ptr %98, i32 1
  store ptr %99, ptr %6, align 8, !tbaa !4
  br label %77, !llvm.loop !46

100:                                              ; preds = %85
  %101 = load i8, ptr %15, align 1, !tbaa !18, !range !21, !noundef !22
  %102 = trunc i8 %101 to i1
  br i1 %102, label %103, label %108

103:                                              ; preds = %100
  %104 = load ptr, ptr %10, align 8, !tbaa !37
  %105 = icmp ne ptr %104, null
  br i1 %105, label %106, label %108

106:                                              ; preds = %103
  %107 = load ptr, ptr %10, align 8, !tbaa !37
  store i8 1, ptr %107, align 1, !tbaa !18
  br label %108

108:                                              ; preds = %106, %103, %100
  %109 = load i32, ptr %12, align 4, !tbaa !16
  %110 = load ptr, ptr %9, align 8, !tbaa !42
  store i32 %109, ptr %110, align 4, !tbaa !16
  %111 = load ptr, ptr %6, align 8, !tbaa !4
  %112 = load ptr, ptr %11, align 8, !tbaa !4
  %113 = ptrtoint ptr %111 to i64
  %114 = ptrtoint ptr %112 to i64
  %115 = sub i64 %113, %114
  %116 = trunc i64 %115 to i32
  call void @llvm.lifetime.end.p0(i64 1, ptr %15) #5
  call void @llvm.lifetime.end.p0(i64 8, ptr %13) #5
  call void @llvm.lifetime.end.p0(i64 4, ptr %12) #5
  call void @llvm.lifetime.end.p0(i64 8, ptr %11) #5
  ret i32 %116
}