; Function Attrs: mustprogress nofree norecurse nosync nounwind memory(argmem: readwrite) uwtable
define internal fastcc noundef i32 @_ZN4absl12_GLOBAL__N_113ConsumeDigitsILi10EiEEiPKcS3_iPT0_Pb(ptr noundef %0, ptr noundef %1, ptr noundef captures(none) %2) unnamed_addr #1 {
  %4 = ptrtoint ptr %0 to i64
  %5 = ptrtoint ptr %1 to i64
  %6 = load i32, ptr %2, align 4, !tbaa !27
  %.fr = freeze i32 %6
  %.not = icmp ne i32 %.fr, 0
  %.not411 = icmp eq ptr %1, %0
  %or.cond2 = or i1 %.not, %.not411
  br i1 %or.cond2, label %.critedge, label %.lr.ph.split.preheader

.lr.ph.split.preheader:                           ; preds = %3
  %7 = sub i64 %5, %4
  %scevgep = getelementptr i8, ptr %0, i64 %7
  br label %.lr.ph.split

.lr.ph.split:                                     ; preds = %.lr.ph.split.preheader, %10
  %.0383 = phi ptr [ %11, %10 ], [ %0, %.lr.ph.split.preheader ]
  %8 = load i8, ptr %.0383, align 1, !tbaa !4
  %9 = icmp eq i8 %8, 48
  br i1 %9, label %10, label %.critedge

10:                                               ; preds = %.lr.ph.split
  %11 = getelementptr inbounds nuw i8, ptr %.0383, i64 1
  %.not41 = icmp eq ptr %1, %11
  br i1 %.not41, label %.critedge, label %.lr.ph.split, !llvm.loop !28

.critedge:                                        ; preds = %.lr.ph.split, %10, %3
  %.038.lcssa = phi ptr [ %0, %3 ], [ %scevgep, %10 ], [ %.0383, %.lr.ph.split ]
  %12 = ptrtoint ptr %.038.lcssa to i64
  %13 = sub i64 %5, %12
  %14 = icmp sgt i64 %13, 9
  %15 = getelementptr inbounds nuw i8, ptr %.038.lcssa, i64 9
  %16 = select i1 %14, ptr %15, ptr %1
  %17 = icmp ult ptr %.038.lcssa, %16
  br i1 %17, label %.lr.ph13.preheader, label %.critedge2

.lr.ph13.preheader:                               ; preds = %.critedge
  %18 = ptrtoint ptr %16 to i64
  %19 = sub i64 %18, %12
  %scevgep24 = getelementptr i8, ptr %.038.lcssa, i64 %19
  br label %.lr.ph13

.lr.ph13:                                         ; preds = %.lr.ph13.preheader, %23
  %.112 = phi ptr [ %28, %23 ], [ %.038.lcssa, %.lr.ph13.preheader ]
  %.03911 = phi i32 [ %27, %23 ], [ %.fr, %.lr.ph13.preheader ]
  %20 = load i8, ptr %.112, align 1, !tbaa !4
  %21 = add i8 %20, -48
  %22 = icmp ult i8 %21, 10
  br i1 %22, label %23, label %.critedge2.loopexit

23:                                               ; preds = %.lr.ph13
  %24 = zext nneg i8 %20 to i32
  %25 = mul nsw i32 %.03911, 10
  %26 = add i32 %25, -48
  %27 = add i32 %26, %24
  %28 = getelementptr inbounds nuw i8, ptr %.112, i64 1
  %exitcond.not = icmp eq ptr %28, %16
  br i1 %exitcond.not, label %.critedge2.loopexit, label %.lr.ph13, !llvm.loop !29

.critedge2.loopexit:                              ; preds = %23, %.lr.ph13
  %.039.lcssa.ph = phi i32 [ %.03911, %.lr.ph13 ], [ %27, %23 ]
  %.1.lcssa.ph = phi ptr [ %.112, %.lr.ph13 ], [ %scevgep24, %23 ]
  %.pre = ptrtoint ptr %.1.lcssa.ph to i64
  br label %.critedge2

.critedge2:                                       ; preds = %.critedge2.loopexit, %.critedge
  %.1.lcssa25.pre-phi = phi i64 [ %.pre, %.critedge2.loopexit ], [ %12, %.critedge ]
  %.039.lcssa = phi i32 [ %.039.lcssa.ph, %.critedge2.loopexit ], [ %.fr, %.critedge ]
  %.1.lcssa = phi ptr [ %.1.lcssa.ph, %.critedge2.loopexit ], [ %.038.lcssa, %.critedge ]
  %29 = icmp ult ptr %.1.lcssa, %1
  br i1 %29, label %.lr.ph20.preheader, label %.critedge4

.lr.ph20.preheader:                               ; preds = %.critedge2
  %30 = sub i64 %5, %.1.lcssa25.pre-phi
  %scevgep26 = getelementptr i8, ptr %.1.lcssa, i64 %30
  br label %.lr.ph20

.lr.ph20:                                         ; preds = %.lr.ph20.preheader, %34
  %.219 = phi ptr [ %35, %34 ], [ %.1.lcssa, %.lr.ph20.preheader ]
  %31 = load i8, ptr %.219, align 1, !tbaa !4
  %32 = add i8 %31, -48
  %33 = icmp ult i8 %32, 10
  br i1 %33, label %34, label %.critedge4.loopexit

34:                                               ; preds = %.lr.ph20
  %35 = getelementptr inbounds nuw i8, ptr %.219, i64 1
  %exitcond27.not = icmp eq ptr %35, %scevgep26
  br i1 %exitcond27.not, label %.critedge4.loopexit, label %.lr.ph20, !llvm.loop !30

.critedge4.loopexit:                              ; preds = %.lr.ph20, %34
  %.2.lcssa.ph = phi ptr [ %scevgep26, %34 ], [ %.219, %.lr.ph20 ]
  %.pre28 = ptrtoint ptr %.2.lcssa.ph to i64
  br label %.critedge4

.critedge4:                                       ; preds = %.critedge4.loopexit, %.critedge2
  %.pre-phi = phi i64 [ %.pre28, %.critedge4.loopexit ], [ %.1.lcssa25.pre-phi, %.critedge2 ]
  store i32 %.039.lcssa, ptr %2, align 4, !tbaa !27
  %36 = sub i64 %.pre-phi, %4
  %37 = trunc i64 %36 to i32
  ret i32 %37
}